target datalayout = "e-m:e-p270:32:32-p271:32:32-p272:64:64-i64:64-i128:128-f80:128-n8:16:32:64-S128"
target triple = "x86_64-pc-linux-gnu"

%struct.pm_lex_mode = type { i32, %union.anon, ptr }
%union.anon = type { %struct.anon.3 }
%struct.anon.3 = type { %struct.pm_heredoc_lex_mode_t, ptr, ptr, i8 }
%struct.pm_heredoc_lex_mode_t = type { ptr, i64, i32, i32 }
%struct.pm_parser = type { i32, i32, i32, i32, i32, i32, i32, %struct.anon, ptr, ptr, %struct.pm_token_t, %struct.pm_token_t, ptr, ptr, %struct.pm_list_t, %struct.pm_list_t, %struct.pm_location_t, %struct.pm_list_t, %struct.pm_list_t, ptr, ptr, ptr, ptr, ptr, ptr, ptr, %struct.pm_string_t, %struct.pm_constant_pool_t, %struct.pm_newline_list_t, i16, %struct.pm_string_t, i32, ptr, ptr, i32, i8, i8, i8, i8, i8, i8, i8, i8, i8, i8, i8, i8, i8 }
%struct.anon = type { ptr, [4 x %struct.pm_lex_mode], i64 }
%struct.pm_token_t = type { i32, ptr, ptr }
%struct.pm_location_t = type { ptr, ptr }
%struct.pm_list_t = type { i64, ptr, ptr }
%struct.pm_constant_pool_t = type { ptr, ptr, i32, i32 }
%struct.pm_newline_list_t = type { ptr, i64, i64, ptr }
%struct.pm_string_t = type { ptr, i64, i32 }
%struct.pm_node_list = type { i64, i64, ptr }
%struct.pm_node = type { i16, i16, i32, %struct.pm_location_t }
%struct.pm_call_node = type { %struct.pm_node, ptr, %struct.pm_location_t, i32, %struct.pm_location_t, %struct.pm_location_t, ptr, %struct.pm_location_t, ptr }
%struct.pm_arguments_node = type { %struct.pm_node, %struct.pm_node_list }
%struct.pm_index_operator_write_node = type { %struct.pm_node, ptr, %struct.pm_location_t, %struct.pm_location_t, ptr, %struct.pm_location_t, ptr, i32, %struct.pm_location_t, ptr }

@stderr = external global ptr, align 8
@.str.94 = private unnamed_addr constant [29 x i8] c"Failed to allocate %d bytes\0A\00", align 1

; Function Attrs: inlinehint nounwind sspstrong uwtable
define internal void @pm_parser_err(ptr noundef %0, ptr noundef %1, ptr noundef %2, i32 noundef %3) #7 {
  %5 = alloca ptr, align 8
  %6 = alloca ptr, align 8
  %7 = alloca ptr, align 8
  %8 = alloca i32, align 4
  store ptr %0, ptr %5, align 8, !tbaa !7
  store ptr %1, ptr %6, align 8, !tbaa !12
  store ptr %2, ptr %7, align 8, !tbaa !12
  store i32 %3, ptr %8, align 4, !tbaa !52
  %9 = load ptr, ptr %5, align 8, !tbaa !7
  %10 = getelementptr inbounds nuw %struct.pm_parser, ptr %9, i32 0, i32 18
  %11 = load ptr, ptr %6, align 8, !tbaa !12
  %12 = load ptr, ptr %7, align 8, !tbaa !12
  %13 = load i32, ptr %8, align 4, !tbaa !52
  %14 = call zeroext i1 @pm_diagnostic_list_append(ptr noundef %10, ptr noundef %11, ptr noundef %12, i32 noundef %13)
  ret void
}

; Function Attrs: inlinehint nounwind sspstrong uwtable
define internal void @pm_parser_err_node(ptr noundef %0, ptr noundef %1, i32 noundef %2) #7 {
  %4 = alloca ptr, align 8
  %5 = alloca ptr, align 8
  %6 = alloca i32, align 4
  store ptr %0, ptr %4, align 8, !tbaa !7
  store ptr %1, ptr %5, align 8, !tbaa !128
  store i32 %2, ptr %6, align 4, !tbaa !52
  %7 = load ptr, ptr %4, align 8, !tbaa !7
  %8 = load ptr, ptr %5, align 8, !tbaa !128
  %9 = getelementptr inbounds nuw %struct.pm_node, ptr %8, i32 0, i32 3
  %10 = getelementptr inbounds nuw %struct.pm_location_t, ptr %9, i32 0, i32 0
  %11 = load ptr, ptr %10, align 8, !tbaa !223
  %12 = load ptr, ptr %5, align 8, !tbaa !128
  %13 = getelementptr inbounds nuw %struct.pm_node, ptr %12, i32 0, i32 3
  %14 = getelementptr inbounds nuw %struct.pm_location_t, ptr %13, i32 0, i32 1
  %15 = load ptr, ptr %14, align 8, !tbaa !224
  %16 = load i32, ptr %6, align 4, !tbaa !52
  call void @pm_parser_err(ptr noundef %7, ptr noundef %11, ptr noundef %15, i32 noundef %16)
  ret void
}

; Function Attrs: inlinehint nounwind sspstrong uwtable
define internal i32 @pm_parser_constant_id_location(ptr noundef %0, ptr noundef %1, ptr noundef %2) #7 {
  %4 = alloca ptr, align 8
  %5 = alloca ptr, align 8
  %6 = alloca ptr, align 8
  store ptr %0, ptr %4, align 8, !tbaa !7
  store ptr %1, ptr %5, align 8, !tbaa !12
  store ptr %2, ptr %6, align 8, !tbaa !12
  %7 = load ptr, ptr %4, align 8, !tbaa !7
  %8 = getelementptr inbounds nuw %struct.pm_parser, ptr %7, i32 0, i32 27
  %9 = load ptr, ptr %5, align 8, !tbaa !12
  %10 = load ptr, ptr %6, align 8, !tbaa !12
  %11 = load ptr, ptr %5, align 8, !tbaa !12
  %12 = ptrtoint ptr %10 to i64
  %13 = ptrtoint ptr %11 to i64
  %14 = sub i64 %12, %13
  %15 = call i32 @pm_constant_pool_insert_shared(ptr noundef %8, ptr noundef %9, i64 noundef %14)
  ret i32 %15
}

; Function Attrs: nounwind sspstrong uwtable
define internal void @pm_index_arguments_check(ptr noundef %0, ptr noundef %1, ptr noundef %2) #0 {
  %4 = alloca ptr, align 8
  %5 = alloca ptr, align 8
  %6 = alloca ptr, align 8
  %7 = alloca ptr, align 8
  %8 = alloca i64, align 8
  %9 = alloca i32, align 4
  store ptr %0, ptr %4, align 8, !tbaa !7
  store ptr %1, ptr %5, align 8, !tbaa !228
  store ptr %2, ptr %6, align 8, !tbaa !128
  %10 = load ptr, ptr %4, align 8, !tbaa !7
  %11 = getelementptr inbounds nuw %struct.pm_parser, ptr %10, i32 0, i32 34
  %12 = load i32, ptr %11, align 8, !tbaa !75
  %13 = icmp ne i32 %12, 1
  br i1 %13, label %14, label %66

14:                                               ; preds = %3
  %15 = load ptr, ptr %5, align 8, !tbaa !228
  %16 = icmp ne ptr %15, null
  br i1 %16, label %17, label %59

17:                                               ; preds = %14
  %18 = load ptr, ptr %5, align 8, !tbaa !228
  %19 = getelementptr inbounds nuw %struct.pm_node, ptr %18, i32 0, i32 1
  %20 = load i16, ptr %19, align 2, !tbaa !222
  %21 = zext i16 %20 to i32
  %22 = and i32 %21, 8
  %23 = icmp ne i32 %22, 0
  br i1 %23, label %24, label %59

24:                                               ; preds = %17
  call void @llvm.lifetime.start.p0(i64 8, ptr %7) #15
  call void @llvm.lifetime.start.p0(i64 8, ptr %8) #15
  store i64 0, ptr %8, align 8, !tbaa !14
  br label %25

25:                                               ; preds = %54, %24
  %26 = load i64, ptr %8, align 8, !tbaa !14
  %27 = load ptr, ptr %5, align 8, !tbaa !228
  %28 = getelementptr inbounds nuw %struct.pm_arguments_node, ptr %27, i32 0, i32 1
  %29 = getelementptr inbounds nuw %struct.pm_node_list, ptr %28, i32 0, i32 0
  %30 = load i64, ptr %29, align 8, !tbaa !852
  %31 = icmp ult i64 %26, %30
  br i1 %31, label %32, label %41

32:                                               ; preds = %25
  %33 = load ptr, ptr %5, align 8, !tbaa !228
  %34 = getelementptr inbounds nuw %struct.pm_arguments_node, ptr %33, i32 0, i32 1
  %35 = getelementptr inbounds nuw %struct.pm_node_list, ptr %34, i32 0, i32 2
  %36 = load ptr, ptr %35, align 8, !tbaa !853
  %37 = load i64, ptr %8, align 8, !tbaa !14
  %38 = getelementptr ptr, ptr %36, i64 %37
  %39 = load ptr, ptr %38, align 8, !tbaa !128
  store ptr %39, ptr %7, align 8, !tbaa !128
  %40 = icmp ne ptr %39, null
  br label %41

41:                                               ; preds = %32, %25
  %42 = phi i1 [ false, %25 ], [ %40, %32 ]
  br i1 %42, label %44, label %43

43:                                               ; preds = %41
  store i32 2, ptr %9, align 4
  br label %57

44:                                               ; preds = %41
  %45 = load ptr, ptr %7, align 8, !tbaa !128
  %46 = getelementptr inbounds nuw %struct.pm_node, ptr %45, i32 0, i32 0
  %47 = load i16, ptr %46, align 8, !tbaa !206
  %48 = zext i16 %47 to i32
  %49 = icmp eq i32 %48, 90
  br i1 %49, label %50, label %53

50:                                               ; preds = %44
  %51 = load ptr, ptr %4, align 8, !tbaa !7
  %52 = load ptr, ptr %7, align 8, !tbaa !128
  call void @pm_parser_err_node(ptr noundef %51, ptr noundef %52, i32 noundef 275)
  store i32 2, ptr %9, align 4
  br label %57

53:                                               ; preds = %44
  br label %54

54:                                               ; preds = %53
  %55 = load i64, ptr %8, align 8, !tbaa !14
  %56 = add i64 %55, 1
  store i64 %56, ptr %8, align 8, !tbaa !14
  br label %25, !llvm.loop !994

57:                                               ; preds = %50, %43
  call void @llvm.lifetime.end.p0(i64 8, ptr %8) #15
  br label %58

58:                                               ; preds = %57
  call void @llvm.lifetime.end.p0(i64 8, ptr %7) #15
  br label %59

59:                                               ; preds = %58, %17, %14
  %60 = load ptr, ptr %6, align 8, !tbaa !128
  %61 = icmp ne ptr %60, null
  br i1 %61, label %62, label %65

62:                                               ; preds = %59
  %63 = load ptr, ptr %4, align 8, !tbaa !7
  %64 = load ptr, ptr %6, align 8, !tbaa !128
  call void @pm_parser_err_node(ptr noundef %63, ptr noundef %64, i32 noundef 274)
  br label %65

65:                                               ; preds = %62, %59
  br label %66

66:                                               ; preds = %65, %3
  ret void
}

; Function Attrs: inlinehint nounwind sspstrong uwtable
define internal ptr @pm_node_alloc(ptr noundef %0, i64 noundef %1) #7 {
  %3 = alloca ptr, align 8
  %4 = alloca i64, align 8
  %5 = alloca ptr, align 8
  store ptr %0, ptr %3, align 8, !tbaa !7
  store i64 %1, ptr %4, align 8, !tbaa !14
  call void @llvm.lifetime.start.p0(i64 8, ptr %5) #15
  %6 = load i64, ptr %4, align 8, !tbaa !14
  %7 = call noalias ptr @calloc(i64 noundef 1, i64 noundef %6) #18
  store ptr %7, ptr %5, align 8, !tbaa !57
  %8 = load ptr, ptr %5, align 8, !tbaa !57
  %9 = icmp eq ptr %8, null
  br i1 %9, label %10, label %15

10:                                               ; preds = %2
  %11 = load ptr, ptr @stderr, align 8, !tbaa !452
  %12 = load i64, ptr %4, align 8, !tbaa !14
  %13 = trunc i64 %12 to i32
  %14 = call i32 (ptr, i32, ptr, ...) @__fprintf_chk(ptr noundef %11, i32 noundef 1, ptr noundef @.str.94, i32 noundef %13)
  call void @abort() #19
  unreachable

15:                                               ; preds = %2
  %16 = load ptr, ptr %5, align 8, !tbaa !57
  call void @llvm.lifetime.end.p0(i64 8, ptr %5) #15
  ret ptr %16
}

; Function Attrs: nounwind sspstrong uwtable
define internal ptr @pm_index_operator_write_node_create(ptr noundef %0, ptr noundef %1, ptr noundef %2, ptr noundef %3) #0 {
  %5 = alloca ptr, align 8
  %6 = alloca ptr, align 8
  %7 = alloca ptr, align 8
  %8 = alloca ptr, align 8
  %9 = alloca ptr, align 8
  %10 = alloca %struct.pm_index_operator_write_node, align 8
  store ptr %0, ptr %5, align 8, !tbaa !7
  store ptr %1, ptr %6, align 8, !tbaa !210
  store ptr %2, ptr %7, align 8, !tbaa !57
  store ptr %3, ptr %8, align 8, !tbaa !128
  call void @llvm.lifetime.start.p0(i64 8, ptr %9) #15
  %11 = load ptr, ptr %5, align 8, !tbaa !7
  %12 = call ptr @pm_node_alloc(ptr noundef %11, i64 noundef 128)
  store ptr %12, ptr %9, align 8, !tbaa !1159
  %13 = load ptr, ptr %5, align 8, !tbaa !7
  %14 = load ptr, ptr %6, align 8, !tbaa !210
  %15 = getelementptr inbounds nuw %struct.pm_call_node, ptr %14, i32 0, i32 6
  %16 = load ptr, ptr %15, align 8, !tbaa !330
  %17 = load ptr, ptr %6, align 8, !tbaa !210
  %18 = getelementptr inbounds nuw %struct.pm_call_node, ptr %17, i32 0, i32 8
  %19 = load ptr, ptr %18, align 8, !tbaa !331
  call void @pm_index_arguments_check(ptr noundef %13, ptr noundef %16, ptr noundef %19)
  %20 = load ptr, ptr %9, align 8, !tbaa !1159
  %21 = getelementptr inbounds nuw %struct.pm_index_operator_write_node, ptr %10, i32 0, i32 0
  %22 = getelementptr inbounds nuw %struct.pm_node, ptr %21, i32 0, i32 0
  store i16 73, ptr %22, align 8, !tbaa !206
  %23 = getelementptr inbounds nuw %struct.pm_node, ptr %21, i32 0, i32 1
  %24 = load ptr, ptr %6, align 8, !tbaa !210
  %25 = getelementptr inbounds nuw %struct.pm_call_node, ptr %24, i32 0, i32 0
  %26 = getelementptr inbounds nuw %struct.pm_node, ptr %25, i32 0, i32 1
  %27 = load i16, ptr %26, align 2, !tbaa !982
  store i16 %27, ptr %23, align 2, !tbaa !222
  %28 = getelementptr inbounds nuw %struct.pm_node, ptr %21, i32 0, i32 2
  %29 = load ptr, ptr %5, align 8, !tbaa !7
  %30 = getelementptr inbounds nuw %struct.pm_parser, ptr %29, i32 0, i32 0
  %31 = load i32, ptr %30, align 8, !tbaa !238
  %32 = add i32 %31, 1
  store i32 %32, ptr %30, align 8, !tbaa !238
  store i32 %32, ptr %28, align 4, !tbaa !239
  %33 = getelementptr inbounds nuw %struct.pm_node, ptr %21, i32 0, i32 3
  %34 = getelementptr inbounds nuw %struct.pm_location_t, ptr %33, i32 0, i32 0
  %35 = load ptr, ptr %6, align 8, !tbaa !210
  %36 = getelementptr inbounds nuw %struct.pm_call_node, ptr %35, i32 0, i32 0
  %37 = getelementptr inbounds nuw %struct.pm_node, ptr %36, i32 0, i32 3
  %38 = getelementptr inbounds nuw %struct.pm_location_t, ptr %37, i32 0, i32 0
  %39 = load ptr, ptr %38, align 8, !tbaa !499
  store ptr %39, ptr %34, align 8, !tbaa !152
  %40 = getelementptr inbounds nuw %struct.pm_location_t, ptr %33, i32 0, i32 1
  %41 = load ptr, ptr %8, align 8, !tbaa !128
  %42 = getelementptr inbounds nuw %struct.pm_node, ptr %41, i32 0, i32 3
  %43 = getelementptr inbounds nuw %struct.pm_location_t, ptr %42, i32 0, i32 1
  %44 = load ptr, ptr %43, align 8, !tbaa !224
  store ptr %44, ptr %40, align 8, !tbaa !153
  %45 = getelementptr inbounds nuw %struct.pm_index_operator_write_node, ptr %10, i32 0, i32 1
  %46 = load ptr, ptr %6, align 8, !tbaa !210
  %47 = getelementptr inbounds nuw %struct.pm_call_node, ptr %46, i32 0, i32 1
  %48 = load ptr, ptr %47, align 8, !tbaa !731
  store ptr %48, ptr %45, align 8, !tbaa !1161
  %49 = getelementptr inbounds nuw %struct.pm_index_operator_write_node, ptr %10, i32 0, i32 2
  %50 = load ptr, ptr %6, align 8, !tbaa !210
  %51 = getelementptr inbounds nuw %struct.pm_call_node, ptr %50, i32 0, i32 2
  call void @llvm.memcpy.p0.p0.i64(ptr align 8 %49, ptr align 8 %51, i64 16, i1 false), !tbaa.struct !241
  %52 = getelementptr inbounds nuw %struct.pm_index_operator_write_node, ptr %10, i32 0, i32 3
  %53 = load ptr, ptr %6, align 8, !tbaa !210
  %54 = getelementptr inbounds nuw %struct.pm_call_node, ptr %53, i32 0, i32 5
  call void @llvm.memcpy.p0.p0.i64(ptr align 8 %52, ptr align 8 %54, i64 16, i1 false), !tbaa.struct !241
  %55 = getelementptr inbounds nuw %struct.pm_index_operator_write_node, ptr %10, i32 0, i32 4
  %56 = load ptr, ptr %6, align 8, !tbaa !210
  %57 = getelementptr inbounds nuw %struct.pm_call_node, ptr %56, i32 0, i32 6
  %58 = load ptr, ptr %57, align 8, !tbaa !330
  store ptr %58, ptr %55, align 8, !tbaa !1163
  %59 = getelementptr inbounds nuw %struct.pm_index_operator_write_node, ptr %10, i32 0, i32 5
  %60 = load ptr, ptr %6, align 8, !tbaa !210
  %61 = getelementptr inbounds nuw %struct.pm_call_node, ptr %60, i32 0, i32 7
  call void @llvm.memcpy.p0.p0.i64(ptr align 8 %59, ptr align 8 %61, i64 16, i1 false), !tbaa.struct !241
  %62 = getelementptr inbounds nuw %struct.pm_index_operator_write_node, ptr %10, i32 0, i32 6
  %63 = load ptr, ptr %6, align 8, !tbaa !210
  %64 = getelementptr inbounds nuw %struct.pm_call_node, ptr %63, i32 0, i32 8
  %65 = load ptr, ptr %64, align 8, !tbaa !331
  store ptr %65, ptr %62, align 8, !tbaa !1164
  %66 = getelementptr inbounds nuw %struct.pm_index_operator_write_node, ptr %10, i32 0, i32 7
  %67 = load ptr, ptr %5, align 8, !tbaa !7
  %68 = load ptr, ptr %7, align 8, !tbaa !57
  %69 = getelementptr inbounds nuw %struct.pm_token_t, ptr %68, i32 0, i32 1
  %70 = load ptr, ptr %69, align 8, !tbaa !43
  %71 = load ptr, ptr %7, align 8, !tbaa !57
  %72 = getelementptr inbounds nuw %struct.pm_token_t, ptr %71, i32 0, i32 2
  %73 = load ptr, ptr %72, align 8, !tbaa !44
  %74 = getelementptr i8, ptr %73, i64 -1
  %75 = call i32 @pm_parser_constant_id_location(ptr noundef %67, ptr noundef %70, ptr noundef %74)
  store i32 %75, ptr %66, align 8, !tbaa !1165
  %76 = getelementptr i8, ptr %10, i64 100
  call void @llvm.memset.p0.i64(ptr align 4 %76, i8 0, i64 4, i1 false)
  %77 = getelementptr inbounds nuw %struct.pm_index_operator_write_node, ptr %10, i32 0, i32 8
  %78 = getelementptr inbounds nuw %struct.pm_location_t, ptr %77, i32 0, i32 0
  %79 = load ptr, ptr %7, align 8, !tbaa !57
  %80 = getelementptr inbounds nuw %struct.pm_token_t, ptr %79, i32 0, i32 1
  %81 = load ptr, ptr %80, align 8, !tbaa !43
  store ptr %81, ptr %78, align 8, !tbaa !152
  %82 = getelementptr inbounds nuw %struct.pm_location_t, ptr %77, i32 0, i32 1
  %83 = load ptr, ptr %7, align 8, !tbaa !57
  %84 = getelementptr inbounds nuw %struct.pm_token_t, ptr %83, i32 0, i32 2
  %85 = load ptr, ptr %84, align 8, !tbaa !44
  store ptr %85, ptr %82, align 8, !tbaa !153
  %86 = getelementptr inbounds nuw %struct.pm_index_operator_write_node, ptr %10, i32 0, i32 9
  %87 = load ptr, ptr %8, align 8, !tbaa !128
  store ptr %87, ptr %86, align 8, !tbaa !1166
  call void @llvm.memcpy.p0.p0.i64(ptr align 8 %20, ptr align 8 %10, i64 128, i1 false), !tbaa.struct !1167
  %88 = load ptr, ptr %6, align 8, !tbaa !210
  call void @free(ptr noundef %88) #15
  %89 = load ptr, ptr %9, align 8, !tbaa !1159
  call void @llvm.lifetime.end.p0(i64 8, ptr %9) #15
  ret ptr %89
}