; Function Attrs: nounwind sspstrong uwtable
define internal fastcc noalias nonnull ptr @pm_index_operator_write_node_create(ptr noundef %0, ptr noundef captures(none) %1, ptr noundef nonnull readonly captures(none) %2, ptr noundef %3) unnamed_addr #1 {
  %5 = tail call noalias dereferenceable_or_null(128) ptr @calloc(i64 noundef 1, i64 noundef 128) #34
  %6 = icmp eq ptr %5, null
  br i1 %6, label %7, label %pm_node_alloc.exit

7:                                                ; preds = %4
  %8 = load ptr, ptr @stderr, align 8, !tbaa !105
  %9 = tail call i32 (ptr, i32, ptr, ...) @__fprintf_chk(ptr noundef %8, i32 noundef 1, ptr noundef nonnull @.str.94, i32 noundef 128) #31
  tail call void @abort() #35
  unreachable

pm_node_alloc.exit:                               ; preds = %4
  %10 = getelementptr inbounds nuw i8, ptr %1, i64 88
  %11 = load ptr, ptr %10, align 8, !tbaa !115
  %12 = getelementptr inbounds nuw i8, ptr %1, i64 112
  %13 = load ptr, ptr %12, align 8, !tbaa !282
  %14 = getelementptr inbounds nuw i8, ptr %0, i64 688
  %15 = load i32, ptr %14, align 8, !tbaa !52
  %.not.i = icmp eq i32 %15, 1
  br i1 %.not.i, label %pm_index_arguments_check.exit, label %16

16:                                               ; preds = %pm_node_alloc.exit
  %.not16.i = icmp eq ptr %11, null
  br i1 %.not16.i, label %.critedge.i, label %17

17:                                               ; preds = %16
  %18 = getelementptr inbounds nuw i8, ptr %11, i64 2
  %19 = load i16, ptr %18, align 2, !tbaa !114
  %20 = and i16 %19, 8
  %.not17.i = icmp eq i16 %20, 0
  br i1 %.not17.i, label %.critedge.i, label %.preheader.i

.preheader.i:                                     ; preds = %17
  %21 = getelementptr inbounds nuw i8, ptr %11, i64 24
  %22 = load i64, ptr %21, align 8, !tbaa !109
  %.not25.i = icmp eq i64 %22, 0
  br i1 %.not25.i, label %.critedge.i, label %.lr.ph.i

.lr.ph.i:                                         ; preds = %.preheader.i
  %23 = getelementptr inbounds nuw i8, ptr %11, i64 40
  %24 = load ptr, ptr %23, align 8, !tbaa !443
  br label %27

25:                                               ; preds = %30
  %26 = add nuw i64 %.023.i, 1
  %exitcond.not.i = icmp eq i64 %26, %22
  br i1 %exitcond.not.i, label %.critedge.i, label %27, !llvm.loop !523

27:                                               ; preds = %25, %.lr.ph.i
  %.023.i = phi i64 [ 0, %.lr.ph.i ], [ %26, %25 ]
  %28 = getelementptr ptr, ptr %24, i64 %.023.i
  %29 = load ptr, ptr %28, align 8, !tbaa !103
  %.not18.i = icmp eq ptr %29, null
  br i1 %.not18.i, label %.critedge.i, label %30

30:                                               ; preds = %27
  %31 = load i16, ptr %29, align 8, !tbaa !113
  %32 = icmp eq i16 %31, 90
  br i1 %32, label %33, label %25

33:                                               ; preds = %30
  %34 = getelementptr i8, ptr %29, i64 8
  %.val21.i = load ptr, ptr %34, align 8, !tbaa !131
  %35 = getelementptr i8, ptr %29, i64 16
  %.val22.i = load ptr, ptr %35, align 8, !tbaa !132
  %36 = getelementptr inbounds nuw i8, ptr %0, i64 472
  %37 = tail call zeroext i1 @pm_diagnostic_list_append(ptr noundef nonnull %36, ptr noundef %.val21.i, ptr noundef %.val22.i, i32 noundef 275) #31
  br label %.critedge.i

.critedge.i:                                      ; preds = %27, %25, %33, %.preheader.i, %17, %16
  %.not19.i = icmp eq ptr %13, null
  br i1 %.not19.i, label %pm_index_arguments_check.exit, label %38

38:                                               ; preds = %.critedge.i
  %39 = getelementptr i8, ptr %13, i64 8
  %.val.i = load ptr, ptr %39, align 8, !tbaa !131
  %40 = getelementptr i8, ptr %13, i64 16
  %.val20.i = load ptr, ptr %40, align 8, !tbaa !132
  %41 = getelementptr inbounds nuw i8, ptr %0, i64 472
  %42 = tail call zeroext i1 @pm_diagnostic_list_append(ptr noundef nonnull %41, ptr noundef %.val.i, ptr noundef %.val20.i, i32 noundef 274) #31
  br label %pm_index_arguments_check.exit

pm_index_arguments_check.exit:                    ; preds = %pm_node_alloc.exit, %.critedge.i, %38
  %43 = getelementptr inbounds nuw i8, ptr %1, i64 2
  %44 = load i16, ptr %43, align 2, !tbaa !651
  %45 = load i32, ptr %0, align 8, !tbaa !107
  %46 = add i32 %45, 1
  store i32 %46, ptr %0, align 8, !tbaa !107
  %47 = getelementptr inbounds nuw i8, ptr %1, i64 8
  %48 = load ptr, ptr %47, align 8, !tbaa !121
  %49 = getelementptr inbounds nuw i8, ptr %3, i64 16
  %50 = load ptr, ptr %49, align 8, !tbaa !132
  %51 = getelementptr inbounds nuw i8, ptr %1, i64 24
  %52 = load ptr, ptr %51, align 8, !tbaa !123
  %53 = getelementptr inbounds nuw i8, ptr %1, i64 32
  %.sroa.7.0..sroa_idx = getelementptr inbounds nuw i8, ptr %5, i64 32
  tail call void @llvm.memcpy.p0.p0.i64(ptr noundef nonnull align 8 dereferenceable(16) %.sroa.7.0..sroa_idx, ptr noundef nonnull align 8 dereferenceable(16) %53, i64 16, i1 false)
  %54 = getelementptr inbounds nuw i8, ptr %1, i64 72
  %.sroa.8.0..sroa_idx = getelementptr inbounds nuw i8, ptr %5, i64 48
  tail call void @llvm.memcpy.p0.p0.i64(ptr noundef nonnull align 8 dereferenceable(16) %.sroa.8.0..sroa_idx, ptr noundef nonnull align 8 dereferenceable(16) %54, i64 16, i1 false)
  %55 = load ptr, ptr %10, align 8, !tbaa !115
  %56 = getelementptr inbounds nuw i8, ptr %1, i64 96
  %.sroa.10.0..sroa_idx = getelementptr inbounds nuw i8, ptr %5, i64 72
  tail call void @llvm.memcpy.p0.p0.i64(ptr noundef nonnull align 8 dereferenceable(16) %.sroa.10.0..sroa_idx, ptr noundef nonnull align 8 dereferenceable(16) %56, i64 16, i1 false)
  %57 = load ptr, ptr %12, align 8, !tbaa !282
  %58 = getelementptr inbounds nuw i8, ptr %2, i64 8
  %59 = load ptr, ptr %58, align 8, !tbaa !125
  %60 = getelementptr inbounds nuw i8, ptr %2, i64 16
  %61 = load ptr, ptr %60, align 8, !tbaa !126
  %62 = getelementptr i8, ptr %61, i64 -1
  %63 = getelementptr inbounds nuw i8, ptr %0, i64 576
  %64 = ptrtoint ptr %62 to i64
  %65 = ptrtoint ptr %59 to i64
  %66 = sub i64 %64, %65
  %67 = tail call i32 @pm_constant_pool_insert_shared(ptr noundef nonnull %63, ptr noundef %59, i64 noundef %66) #31
  %68 = load ptr, ptr %58, align 8, !tbaa !125
  %69 = load ptr, ptr %60, align 8, !tbaa !126
  store i16 73, ptr %5, align 8, !tbaa !108
  %.sroa.2.0..sroa_idx = getelementptr inbounds nuw i8, ptr %5, i64 2
  store i16 %44, ptr %.sroa.2.0..sroa_idx, align 2, !tbaa !108
  %.sroa.3.0..sroa_idx = getelementptr inbounds nuw i8, ptr %5, i64 4
  store i32 %46, ptr %.sroa.3.0..sroa_idx, align 4, !tbaa !7
  %.sroa.4.0..sroa_idx = getelementptr inbounds nuw i8, ptr %5, i64 8
  store ptr %48, ptr %.sroa.4.0..sroa_idx, align 8, !tbaa !14
  %.sroa.5.0..sroa_idx = getelementptr inbounds nuw i8, ptr %5, i64 16
  store ptr %50, ptr %.sroa.5.0..sroa_idx, align 8, !tbaa !14
  %.sroa.6.0..sroa_idx = getelementptr inbounds nuw i8, ptr %5, i64 24
  store ptr %52, ptr %.sroa.6.0..sroa_idx, align 8, !tbaa !103
  %.sroa.9.0..sroa_idx = getelementptr inbounds nuw i8, ptr %5, i64 64
  store ptr %55, ptr %.sroa.9.0..sroa_idx, align 8, !tbaa !501
  %.sroa.11.0..sroa_idx = getelementptr inbounds nuw i8, ptr %5, i64 88
  store ptr %57, ptr %.sroa.11.0..sroa_idx, align 8, !tbaa !524
  %.sroa.12.0..sroa_idx = getelementptr inbounds nuw i8, ptr %5, i64 96
  store i32 %67, ptr %.sroa.12.0..sroa_idx, align 8, !tbaa !7
  %.sroa.14.0..sroa_idx = getelementptr inbounds nuw i8, ptr %5, i64 104
  store ptr %68, ptr %.sroa.14.0..sroa_idx, align 8, !tbaa !14
  %.sroa.15.0..sroa_idx = getelementptr inbounds nuw i8, ptr %5, i64 112
  store ptr %69, ptr %.sroa.15.0..sroa_idx, align 8, !tbaa !14
  %.sroa.16.0..sroa_idx = getelementptr inbounds nuw i8, ptr %5, i64 120
  store ptr %3, ptr %.sroa.16.0..sroa_idx, align 8, !tbaa !103
  tail call void @free(ptr noundef %1) #31
  ret ptr %5
}